(lp0
(i__main__
Persona
p1
(dp2
S'edad'
p3
I22
sS'nombre'
p4
S'Marc'
p5
sS'genero'
p6
S'M'
p7
sba(i__main__
Persona
p8
(dp9
g3
I22
sg4
S'Marc'
p10
sg6
S'M'
p11
sba(i__main__
Persona
p12
(dp13
g3
I22
sg4
S'Marc'
p14
sg6
S'M'
p15
sba.